target datalayout = "e-m:e-p270:32:32-p271:32:32-p272:64:64-i64:64-i128:128-f80:128-n8:16:32:64-S128"
target triple = "x86_64-pc-linux-gnu"

%class.JSON = type <{ ptr, ptr, ptr, ptr, ptr, i32, i32, i32, i8, i8, [2 x i8] }>

; Function Attrs: mustprogress nounwind uwtable
define hidden noundef zeroext i8 @_ZN4JSON4nextEv(ptr noundef nonnull align 8 dereferenceable(54) %0) #1 align 2 {
  %2 = alloca ptr, align 8
  %3 = alloca i8, align 1
  store ptr %0, ptr %2, align 8
  %4 = load ptr, ptr %2, align 8
  %5 = getelementptr inbounds %class.JSON, ptr %4, i32 0, i32 3
  %6 = load ptr, ptr %5, align 8
  %7 = load i8, ptr %6, align 1
  store i8 %7, ptr %3, align 1
  %8 = load i8, ptr %3, align 1
  %9 = zext i8 %8 to i32
  %10 = icmp ne i32 %9, 0
  br i1 %10, label %11, label %15

11:                                               ; preds = %1
  %12 = getelementptr inbounds %class.JSON, ptr %4, i32 0, i32 3
  %13 = load ptr, ptr %12, align 8
  %14 = getelementptr inbounds i8, ptr %13, i32 1
  store ptr %14, ptr %12, align 8
  br label %15

15:                                               ; preds = %11, %1
  %16 = load i8, ptr %3, align 1
  ret i8 %16
}

; Function Attrs: mustprogress nounwind uwtable
define hidden noundef zeroext i8 @_ZN4JSON4peekEm(ptr noundef nonnull align 8 dereferenceable(54) %0, i64 noundef %1) #1 align 2 {
  %3 = alloca ptr, align 8
  %4 = alloca i64, align 8
  %5 = alloca i8, align 1
  %6 = alloca ptr, align 8
  store ptr %0, ptr %3, align 8
  store i64 %1, ptr %4, align 8
  %7 = load ptr, ptr %3, align 8
  %8 = getelementptr inbounds %class.JSON, ptr %7, i32 0, i32 3
  %9 = load ptr, ptr %8, align 8
  store ptr %9, ptr %6, align 8
  %10 = load ptr, ptr %6, align 8
  %11 = load i8, ptr %10, align 1
  store i8 %11, ptr %5, align 1
  br label %12

12:                                               ; preds = %21, %2
  %13 = load i64, ptr %4, align 8
  %14 = icmp ugt i64 %13, 0
  br i1 %14, label %15, label %19

15:                                               ; preds = %12
  %16 = load i8, ptr %5, align 1
  %17 = zext i8 %16 to i32
  %18 = icmp ne i32 %17, 0
  br label %19

19:                                               ; preds = %15, %12
  %20 = phi i1 [ false, %12 ], [ %18, %15 ]
  br i1 %20, label %21, label %28

21:                                               ; preds = %19
  %22 = load i64, ptr %4, align 8
  %23 = add i64 %22, -1
  store i64 %23, ptr %4, align 8
  %24 = load ptr, ptr %6, align 8
  %25 = getelementptr inbounds i8, ptr %24, i32 1
  store ptr %25, ptr %6, align 8
  %26 = load ptr, ptr %6, align 8
  %27 = load i8, ptr %26, align 1
  store i8 %27, ptr %5, align 1
  br label %12, !llvm.loop !16

28:                                               ; preds = %19
  %29 = load i8, ptr %5, align 1
  ret i8 %29
}

; Function Attrs: mustprogress nounwind uwtable
define hidden noundef i32 @_ZN4JSON13skip_to_tokenEv(ptr noundef nonnull align 8 dereferenceable(54) %0) #1 align 2 {
  %2 = alloca i32, align 4
  %3 = alloca ptr, align 8
  %4 = alloca i32, align 4
  %5 = alloca i8, align 1
  store ptr %0, ptr %3, align 8
  %6 = load ptr, ptr %3, align 8
  br label %7

7:                                                ; preds = %40, %1
  %8 = call noundef zeroext i8 @_ZN4JSON4peekEm(ptr noundef nonnull align 8 dereferenceable(54) %6, i64 noundef 0)
  %9 = zext i8 %8 to i32
  store i32 %9, ptr %4, align 4
  %10 = load i32, ptr %4, align 4
  %11 = icmp eq i32 %10, 47
  br i1 %11, label %12, label %32

12:                                               ; preds = %7
  %13 = call noundef zeroext i8 @_ZN4JSON4peekEm(ptr noundef nonnull align 8 dereferenceable(54) %6, i64 noundef 1)
  store i8 %13, ptr %5, align 1
  %14 = load i8, ptr %5, align 1
  %15 = zext i8 %14 to i32
  %16 = icmp eq i32 %15, 47
  br i1 %16, label %17, label %20

17:                                               ; preds = %12
  %18 = call noundef zeroext i8 @_ZN4JSON17skip_line_commentEv(ptr noundef nonnull align 8 dereferenceable(54) %6)
  %19 = zext i8 %18 to i32
  store i32 %19, ptr %4, align 4
  br label %31

20:                                               ; preds = %12
  %21 = load i8, ptr %5, align 1
  %22 = zext i8 %21 to i32
  %23 = icmp eq i32 %22, 42
  br i1 %23, label %24, label %30

24:                                               ; preds = %20
  %25 = call noundef i32 @_ZN4JSON18skip_block_commentEv(ptr noundef nonnull align 8 dereferenceable(54) %6)
  store i32 %25, ptr %4, align 4
  %26 = load i32, ptr %4, align 4
  %27 = icmp slt i32 %26, 0
  br i1 %27, label %28, label %29

28:                                               ; preds = %24
  store i32 -1, ptr %2, align 4
  br label %42

29:                                               ; preds = %24
  br label %30

30:                                               ; preds = %29, %20
  br label %31

31:                                               ; preds = %30, %17
  br label %32

32:                                               ; preds = %31, %7
  %33 = load i32, ptr %4, align 4
  %34 = icmp eq i32 %33, 0
  br i1 %34, label %38, label %35

35:                                               ; preds = %32
  %36 = load i32, ptr %4, align 4
  %37 = icmp sgt i32 %36, 32
  br i1 %37, label %38, label %40

38:                                               ; preds = %35, %32
  %39 = load i32, ptr %4, align 4
  store i32 %39, ptr %2, align 4
  br label %42

40:                                               ; preds = %35
  %41 = call noundef zeroext i8 @_ZN4JSON4nextEv(ptr noundef nonnull align 8 dereferenceable(54) %6)
  br label %7, !llvm.loop !8

42:                                               ; preds = %38, %28
  %43 = load i32, ptr %2, align 4
  ret i32 %43
}