; Function Attrs: mustprogress nounwind uwtable
define hidden noundef range(i32 -1, 256) i32 @_ZN4JSON13skip_to_tokenEv(ptr nocapture noundef nonnull align 8 dereferenceable(54) %0) local_unnamed_addr #1 align 2 {
  %2 = getelementptr inbounds i8, ptr %0, i64 24
  %.pre = load ptr, ptr %2, align 8
  br label %_ZN4JSON4nextEv.exit

_ZN4JSON4nextEv.exit:                             ; preds = %_ZN4JSON4nextEv.exit.backedge, %1
  %3 = phi ptr [ %.pre, %1 ], [ %.be, %_ZN4JSON4nextEv.exit.backedge ]
  %.079.i = load i8, ptr %3, align 1
  %4 = zext i8 %.079.i to i32
  %5 = icmp eq i8 %.079.i, 47
  br i1 %5, label %.lr.ph.i.preheader, label %13

.lr.ph.i.preheader:                               ; preds = %_ZN4JSON4nextEv.exit
  %6 = getelementptr inbounds i8, ptr %3, i64 1
  %.07.i = load i8, ptr %6, align 1
  switch i8 %.07.i, label %.thread [
    i8 47, label %7
    i8 42, label %10
  ]

7:                                                ; preds = %.lr.ph.i.preheader
  %8 = tail call noundef zeroext i8 @_ZN4JSON17skip_line_commentEv(ptr noundef nonnull align 8 dereferenceable(54) %0)
  %9 = zext i8 %8 to i32
  br label %13

10:                                               ; preds = %.lr.ph.i.preheader
  %11 = tail call noundef i32 @_ZN4JSON18skip_block_commentEv(ptr noundef nonnull align 8 dereferenceable(54) %0)
  %12 = icmp slt i32 %11, 0
  br i1 %12, label %.thread, label %13

13:                                               ; preds = %7, %10, %_ZN4JSON4nextEv.exit
  %.09 = phi i32 [ %9, %7 ], [ %11, %10 ], [ %4, %_ZN4JSON4nextEv.exit ]
  %14 = add nsw i32 %.09, -33
  %or.cond = icmp ult i32 %14, -32
  br i1 %or.cond, label %.thread, label %15

15:                                               ; preds = %13
  %16 = load ptr, ptr %2, align 8
  %17 = load i8, ptr %16, align 1
  %.not.i = icmp eq i8 %17, 0
  br i1 %.not.i, label %_ZN4JSON4nextEv.exit.backedge, label %18

_ZN4JSON4nextEv.exit.backedge:                    ; preds = %15, %18
  %.be = phi ptr [ %16, %15 ], [ %19, %18 ]
  br label %_ZN4JSON4nextEv.exit, !llvm.loop !8

18:                                               ; preds = %15
  %19 = getelementptr inbounds i8, ptr %16, i64 1
  store ptr %19, ptr %2, align 8
  br label %_ZN4JSON4nextEv.exit.backedge

.thread:                                          ; preds = %.lr.ph.i.preheader, %13, %10
  %.0 = phi i32 [ -1, %10 ], [ %.09, %13 ], [ 47, %.lr.ph.i.preheader ]
  ret i32 %.0
}